(lp0
I3
a(iDatabase
group
p1
(dp2
S'department'
p3
S'spscs'
p4
sS'faculty'
p5
S'fam'
p6
sS'id'
p7
I0
sS'name'
p8
S'kv41'
p9
sS'studid'
p10
(lp11
I7
aI8
aI9
aI10
asba(iDatabase
group
p12
(dp13
g3
g4
sg5
g6
sg7
I2
sg8
S'kv43'
p14
sg10
(lp15
I0
aI1
aI2
aI3
asba.