(lp0
I5
a(iDatabase
student
p1
(dp2
S'fullname'
p3
S'Vasya'
p4
sS'group'
p5
S'kv43'
p6
sS'age'
p7
I19
sS'id'
p8
I1
sba(iDatabase
student
p9
(dp10
g3
S'Natasha'
p11
sg5
g6
sg7
I21
sg8
I3
sba(iDatabase
student
p12
(dp13
g3
S'12'
p14
sg5
S'kv41'
p15
sg7
I19
sg8
I4
sba.