(lp0
I4
a(iDatabase
student
p1
(dp2
S'fullname'
p3
S'Vitaliy'
p4
sS'group'
p5
S'kv43'
p6
sS'age'
p7
I19
sS'id'
p8
I0
sba(iDatabase
student
p9
(dp10
g3
S'Alexandr'
p11
sg5
g6
sg7
I21
sg8
I1
sba(iDatabase
student
p12
(dp13
g3
S'Yuriy'
p14
sg5
g6
sg7
I21
sg8
I2
sba(iDatabase
student
p15
(dp16
g3
S'Innokentiy'
p17
sg5
S'kv41'
p18
sg7
I19
sg8
I3
sba.